; Function Attrs: nounwind uwtable
define void @b2Body_SetMassData(i64 %0, <2 x float> %1, <2 x float> %2) local_unnamed_addr #8 {
  %4 = alloca %struct.b2MassData, align 8
  %.sroa.2.0.extract.shift = lshr i64 %0, 32
  store <2 x float> %1, ptr %4, align 8
  %.8..8..8..8..sroa_idx = getelementptr inbounds nuw i8, ptr %4, i64 8
  store <2 x float> %2, ptr %.8..8..8..8..sroa_idx, align 8
  %5 = trunc nuw i64 %.sroa.2.0.extract.shift to i32
  %6 = and i32 %5, 65535
  %7 = tail call ptr @b2GetWorldLocked(i32 noundef %6) #10
  %8 = icmp eq ptr %7, null
  br i1 %8, label %52, label %9

9:                                                ; preds = %3
  %10 = extractelement <2 x float> %2, i64 1
  %11 = extractelement <2 x float> %1, i64 0
  %12 = getelementptr inbounds nuw i8, ptr %7, i64 1032
  %.val.i = load ptr, ptr %12, align 8, !tbaa !10
  %13 = shl i64 %0, 32
  %sext.i = add i64 %13, -4294967296
  %14 = ashr exact i64 %sext.i, 25
  %15 = getelementptr inbounds i8, ptr %.val.i, i64 %14
  %16 = getelementptr inbounds nuw i8, ptr %7, i64 1072
  %17 = getelementptr inbounds nuw i8, ptr %15, i64 40
  %18 = load i32, ptr %17, align 8, !tbaa !19
  %.val.i21 = load ptr, ptr %16, align 8, !tbaa !24
  %19 = sext i32 %18 to i64
  %20 = getelementptr inbounds %struct.b2SolverSet, ptr %.val.i21, i64 %19
  %21 = getelementptr inbounds nuw i8, ptr %15, i64 44
  %22 = load i32, ptr %21, align 4, !tbaa !27
  %.val5.i = load ptr, ptr %20, align 8, !tbaa !14
  %23 = sext i32 %22 to i64
  %24 = getelementptr inbounds %struct.b2BodySim, ptr %.val5.i, i64 %23
  %25 = getelementptr inbounds nuw i8, ptr %15, i64 88
  store float %11, ptr %25, align 8, !tbaa !140
  %26 = getelementptr inbounds nuw i8, ptr %15, i64 92
  store float %10, ptr %26, align 4, !tbaa !141
  %27 = getelementptr inbounds nuw i8, ptr %24, i64 40
  %.4..4..4..sroa_idx = getelementptr inbounds nuw i8, ptr %4, i64 4
  %.4..4..4. = load i64, ptr %.4..4..4..sroa_idx, align 4
  store i64 %.4..4..4., ptr %27, align 4
  %28 = load <2 x float>, ptr %24, align 4
  %29 = getelementptr inbounds nuw i8, ptr %24, i64 8
  %30 = load <2 x float>, ptr %29, align 4
  %.4..cast = bitcast i64 %.4..4..4. to <2 x float>
  %.sroa.3.8.vec.extract.i = extractelement <2 x float> %30, i64 0
  %.sroa.0.0.vec.extract.i = extractelement <2 x float> %.4..cast, i64 0
  %31 = fmul <2 x float> %30, %.4..cast
  %32 = extractelement <2 x float> %31, i64 0
  %.sroa.3.12.vec.extract.i = extractelement <2 x float> %30, i64 1
  %.sroa.0.4.vec.extract.i = extractelement <2 x float> %.4..cast, i64 1
  %33 = fmul float %.sroa.0.4.vec.extract.i, %.sroa.3.12.vec.extract.i
  %34 = fsub float %32, %33
  %.sroa.06.0.vec.extract.i = extractelement <2 x float> %28, i64 0
  %35 = fadd float %.sroa.06.0.vec.extract.i, %34
  %36 = fmul float %.sroa.0.0.vec.extract.i, %.sroa.3.12.vec.extract.i
  %37 = fmul float %.sroa.0.4.vec.extract.i, %.sroa.3.8.vec.extract.i
  %38 = fadd float %36, %37
  %.sroa.06.4.vec.extract.i = extractelement <2 x float> %28, i64 1
  %39 = fadd float %.sroa.06.4.vec.extract.i, %38
  %.sroa.011.0.vec.insert.i = insertelement <2 x float> poison, float %35, i64 0
  %.sroa.011.4.vec.insert.i = insertelement <2 x float> %.sroa.011.0.vec.insert.i, float %39, i64 1
  %40 = getelementptr inbounds nuw i8, ptr %24, i64 16
  store <2 x float> %.sroa.011.4.vec.insert.i, ptr %40, align 4
  %41 = getelementptr inbounds nuw i8, ptr %24, i64 32
  store <2 x float> %.sroa.011.4.vec.insert.i, ptr %41, align 4
  %42 = load float, ptr %25, align 8, !tbaa !140
  %43 = fcmp ogt float %42, 0.000000e+00
  %44 = fdiv float 1.000000e+00, %42
  %45 = select i1 %43, float %44, float 0.000000e+00
  %46 = getelementptr inbounds nuw i8, ptr %24, i64 60
  store float %45, ptr %46, align 4, !tbaa !192
  %47 = load float, ptr %26, align 4, !tbaa !141
  %48 = fcmp ogt float %47, 0.000000e+00
  %49 = fdiv float 1.000000e+00, %47
  %50 = select i1 %48, float %49, float 0.000000e+00
  %51 = getelementptr inbounds nuw i8, ptr %24, i64 64
  store float %50, ptr %51, align 4, !tbaa !193
  br label %52

52:                                               ; preds = %3, %9
  ret void
}